target datalayout = "e-m:e-p270:32:32-p271:32:32-p272:64:64-i64:64-i128:128-f80:128-n8:16:32:64-S128"
target triple = "x86_64-pc-linux-gnu"

%struct.pm_regexp_parser_t = type { ptr, ptr, ptr, ptr, i8, i8, ptr, ptr, ptr, ptr, ptr }
%struct.pm_parser = type { i32, i32, i32, i32, i32, i32, i32, %struct.anon, ptr, ptr, %struct.pm_token_t, %struct.pm_token_t, ptr, ptr, %struct.pm_list_t, %struct.pm_list_t, %struct.pm_location_t, %struct.pm_list_t, %struct.pm_list_t, ptr, ptr, ptr, ptr, ptr, ptr, ptr, %struct.pm_string_t, %struct.pm_constant_pool_t, %struct.pm_newline_list_t, i16, %struct.pm_string_t, i32, ptr, ptr, i32, i8, i8, i8, i8, i8, i8, i8, i8, i8, i8, i8, i8, i8 }
%struct.anon = type { ptr, [4 x %struct.pm_lex_mode], i64 }
%struct.pm_lex_mode = type { i32, %union.anon, ptr }
%union.anon = type { %struct.anon.3 }
%struct.anon.3 = type { %struct.pm_heredoc_lex_mode_t, ptr, ptr, i8 }
%struct.pm_heredoc_lex_mode_t = type { ptr, i64, i32, i32 }
%struct.pm_token_t = type { i32, ptr, ptr }
%struct.pm_location_t = type { ptr, ptr }
%struct.pm_list_t = type { i64, ptr, ptr }
%struct.pm_constant_pool_t = type { ptr, ptr, i32, i32 }
%struct.pm_newline_list_t = type { ptr, i64, i64, ptr }
%struct.pm_string_t = type { ptr, i64, i32 }

@.str = private unnamed_addr constant [23 x i8] c"parse depth limit over\00", align 1

; Function Attrs: inlinehint nounwind sspstrong uwtable
define internal void @pm_regexp_parse_error(ptr noundef %0, ptr noundef %1, ptr noundef %2, ptr noundef %3) #2 {
  %5 = alloca ptr, align 8
  %6 = alloca ptr, align 8
  %7 = alloca ptr, align 8
  %8 = alloca ptr, align 8
  store ptr %0, ptr %5, align 8, !tbaa !18
  store ptr %1, ptr %6, align 8, !tbaa !12
  store ptr %2, ptr %7, align 8, !tbaa !12
  store ptr %3, ptr %8, align 8, !tbaa !12
  %9 = load ptr, ptr %5, align 8, !tbaa !18
  %10 = getelementptr inbounds nuw %struct.pm_regexp_parser_t, ptr %9, i32 0, i32 9
  %11 = load ptr, ptr %10, align 8, !tbaa !49
  %12 = load ptr, ptr %6, align 8, !tbaa !12
  %13 = load ptr, ptr %7, align 8, !tbaa !12
  %14 = load ptr, ptr %8, align 8, !tbaa !12
  %15 = load ptr, ptr %5, align 8, !tbaa !18
  %16 = getelementptr inbounds nuw %struct.pm_regexp_parser_t, ptr %15, i32 0, i32 10
  %17 = load ptr, ptr %16, align 8, !tbaa !50
  call void %11(ptr noundef %12, ptr noundef %13, ptr noundef %14, ptr noundef %17)
  ret void
}

; Function Attrs: inlinehint nounwind sspstrong uwtable
define internal zeroext i1 @pm_regexp_char_accept(ptr noundef %0, i8 noundef zeroext %1) #2 {
  %3 = alloca i1, align 1
  %4 = alloca ptr, align 8
  %5 = alloca i8, align 1
  store ptr %0, ptr %4, align 8, !tbaa !18
  store i8 %1, ptr %5, align 1, !tbaa !54
  %6 = load ptr, ptr %4, align 8, !tbaa !18
  %7 = call zeroext i1 @pm_regexp_char_is_eof(ptr noundef %6)
  br i1 %7, label %22, label %8

8:                                                ; preds = %2
  %9 = load ptr, ptr %4, align 8, !tbaa !18
  %10 = getelementptr inbounds nuw %struct.pm_regexp_parser_t, ptr %9, i32 0, i32 2
  %11 = load ptr, ptr %10, align 8, !tbaa !22
  %12 = load i8, ptr %11, align 1, !tbaa !54
  %13 = zext i8 %12 to i32
  %14 = load i8, ptr %5, align 1, !tbaa !54
  %15 = zext i8 %14 to i32
  %16 = icmp eq i32 %13, %15
  br i1 %16, label %17, label %22

17:                                               ; preds = %8
  %18 = load ptr, ptr %4, align 8, !tbaa !18
  %19 = getelementptr inbounds nuw %struct.pm_regexp_parser_t, ptr %18, i32 0, i32 2
  %20 = load ptr, ptr %19, align 8, !tbaa !22
  %21 = getelementptr i8, ptr %20, i32 1
  store ptr %21, ptr %19, align 8, !tbaa !22
  store i1 true, ptr %3, align 1
  br label %23

22:                                               ; preds = %8, %2
  store i1 false, ptr %3, align 1
  br label %23

23:                                               ; preds = %22, %17
  %24 = load i1, ptr %3, align 1
  ret i1 %24
}

; Function Attrs: nounwind sspstrong uwtable
define internal zeroext i1 @pm_regexp_parse_expression(ptr noundef %0, i16 noundef zeroext %1) #0 {
  %3 = alloca i1, align 1
  %4 = alloca ptr, align 8
  %5 = alloca i16, align 2
  store ptr %0, ptr %4, align 8, !tbaa !18
  store i16 %1, ptr %5, align 2, !tbaa !53
  %6 = load i16, ptr %5, align 2, !tbaa !53
  %7 = zext i16 %6 to i32
  %8 = icmp sge i32 %7, 4096
  br i1 %8, label %9, label %17

9:                                                ; preds = %2
  %10 = load ptr, ptr %4, align 8, !tbaa !18
  %11 = load ptr, ptr %4, align 8, !tbaa !18
  %12 = getelementptr inbounds nuw %struct.pm_regexp_parser_t, ptr %11, i32 0, i32 1
  %13 = load ptr, ptr %12, align 8, !tbaa !21
  %14 = load ptr, ptr %4, align 8, !tbaa !18
  %15 = getelementptr inbounds nuw %struct.pm_regexp_parser_t, ptr %14, i32 0, i32 3
  %16 = load ptr, ptr %15, align 8, !tbaa !23
  call void @pm_regexp_parse_error(ptr noundef %10, ptr noundef %13, ptr noundef %16, ptr noundef @.str)
  store i1 false, ptr %3, align 1
  br label %49

17:                                               ; preds = %2
  %18 = load ptr, ptr %4, align 8, !tbaa !18
  %19 = load i16, ptr %5, align 2, !tbaa !53
  %20 = call zeroext i1 @pm_regexp_parse_item(ptr noundef %18, i16 noundef zeroext %19)
  br i1 %20, label %22, label %21

21:                                               ; preds = %17
  store i1 false, ptr %3, align 1
  br label %49

22:                                               ; preds = %17
  br label %23

23:                                               ; preds = %47, %22
  %24 = load ptr, ptr %4, align 8, !tbaa !18
  %25 = call zeroext i1 @pm_regexp_char_is_eof(ptr noundef %24)
  br i1 %25, label %40, label %26

26:                                               ; preds = %23
  %27 = load ptr, ptr %4, align 8, !tbaa !18
  %28 = getelementptr inbounds nuw %struct.pm_regexp_parser_t, ptr %27, i32 0, i32 2
  %29 = load ptr, ptr %28, align 8, !tbaa !22
  %30 = load i8, ptr %29, align 1, !tbaa !54
  %31 = zext i8 %30 to i32
  %32 = icmp ne i32 %31, 41
  br i1 %32, label %33, label %40

33:                                               ; preds = %26
  %34 = load ptr, ptr %4, align 8, !tbaa !18
  %35 = getelementptr inbounds nuw %struct.pm_regexp_parser_t, ptr %34, i32 0, i32 2
  %36 = load ptr, ptr %35, align 8, !tbaa !22
  %37 = load i8, ptr %36, align 1, !tbaa !54
  %38 = zext i8 %37 to i32
  %39 = icmp ne i32 %38, 124
  br label %40

40:                                               ; preds = %33, %26, %23
  %41 = phi i1 [ false, %26 ], [ false, %23 ], [ %39, %33 ]
  br i1 %41, label %42, label %48

42:                                               ; preds = %40
  %43 = load ptr, ptr %4, align 8, !tbaa !18
  %44 = load i16, ptr %5, align 2, !tbaa !53
  %45 = call zeroext i1 @pm_regexp_parse_item(ptr noundef %43, i16 noundef zeroext %44)
  br i1 %45, label %47, label %46

46:                                               ; preds = %42
  store i1 false, ptr %3, align 1
  br label %49

47:                                               ; preds = %42
  br label %23, !llvm.loop !55

48:                                               ; preds = %40
  store i1 true, ptr %3, align 1
  br label %49

49:                                               ; preds = %48, %46, %21, %9
  %50 = load i1, ptr %3, align 1
  ret i1 %50
}

; Function Attrs: inlinehint nounwind sspstrong uwtable
define internal zeroext i1 @pm_regexp_char_is_eof(ptr noundef %0) #2 {
  %2 = alloca ptr, align 8
  store ptr %0, ptr %2, align 8, !tbaa !18
  %3 = load ptr, ptr %2, align 8, !tbaa !18
  %4 = getelementptr inbounds nuw %struct.pm_regexp_parser_t, ptr %3, i32 0, i32 2
  %5 = load ptr, ptr %4, align 8, !tbaa !22
  %6 = load ptr, ptr %2, align 8, !tbaa !18
  %7 = getelementptr inbounds nuw %struct.pm_regexp_parser_t, ptr %6, i32 0, i32 3
  %8 = load ptr, ptr %7, align 8, !tbaa !23
  %9 = icmp uge ptr %5, %8
  ret i1 %9
}

; Function Attrs: nounwind sspstrong uwtable
define internal zeroext i1 @pm_regexp_parse_pattern(ptr noundef %0) #0 {
  %2 = alloca i1, align 1
  %3 = alloca ptr, align 8
  store ptr %0, ptr %3, align 8, !tbaa !18
  br label %4

4:                                                ; preds = %13, %1
  %5 = load ptr, ptr %3, align 8, !tbaa !18
  %6 = call zeroext i1 @pm_regexp_char_is_eof(ptr noundef %5)
  br i1 %6, label %7, label %8

7:                                                ; preds = %4
  store i1 true, ptr %2, align 1
  br label %19

8:                                                ; preds = %4
  %9 = load ptr, ptr %3, align 8, !tbaa !18
  %10 = call zeroext i1 @pm_regexp_parse_expression(ptr noundef %9, i16 noundef zeroext 0)
  br i1 %10, label %12, label %11

11:                                               ; preds = %8
  store i1 false, ptr %2, align 1
  br label %19

12:                                               ; preds = %8
  br label %13

13:                                               ; preds = %12
  %14 = load ptr, ptr %3, align 8, !tbaa !18
  %15 = call zeroext i1 @pm_regexp_char_accept(ptr noundef %14, i8 noundef zeroext 124)
  br i1 %15, label %4, label %16, !llvm.loop !51

16:                                               ; preds = %13
  %17 = load ptr, ptr %3, align 8, !tbaa !18
  %18 = call zeroext i1 @pm_regexp_char_is_eof(ptr noundef %17)
  store i1 %18, ptr %2, align 1
  br label %19

19:                                               ; preds = %16, %11, %7
  %20 = load i1, ptr %2, align 1
  ret i1 %20
}

; Function Attrs: nounwind sspstrong uwtable
define hidden void @pm_regexp_parse(ptr noundef %0, ptr noundef %1, i64 noundef %2, i1 noundef zeroext %3, ptr noundef %4, ptr noundef %5, ptr noundef %6, ptr noundef %7) #0 {
  %9 = alloca ptr, align 8
  %10 = alloca ptr, align 8
  %11 = alloca i64, align 8
  %12 = alloca i8, align 1
  %13 = alloca ptr, align 8
  %14 = alloca ptr, align 8
  %15 = alloca ptr, align 8
  %16 = alloca ptr, align 8
  %17 = alloca %struct.pm_regexp_parser_t, align 8
  store ptr %0, ptr %9, align 8, !tbaa !7
  store ptr %1, ptr %10, align 8, !tbaa !12
  store i64 %2, ptr %11, align 8, !tbaa !14
  %18 = zext i1 %3 to i8
  store i8 %18, ptr %12, align 1, !tbaa !16
  store ptr %4, ptr %13, align 8, !tbaa !18
  store ptr %5, ptr %14, align 8, !tbaa !18
  store ptr %6, ptr %15, align 8, !tbaa !18
  store ptr %7, ptr %16, align 8, !tbaa !18
  %19 = getelementptr inbounds nuw %struct.pm_regexp_parser_t, ptr %17, i32 0, i32 0
  %20 = load ptr, ptr %9, align 8, !tbaa !7
  store ptr %20, ptr %19, align 8, !tbaa !19
  %21 = getelementptr inbounds nuw %struct.pm_regexp_parser_t, ptr %17, i32 0, i32 1
  %22 = load ptr, ptr %10, align 8, !tbaa !12
  store ptr %22, ptr %21, align 8, !tbaa !21
  %23 = getelementptr inbounds nuw %struct.pm_regexp_parser_t, ptr %17, i32 0, i32 2
  %24 = load ptr, ptr %10, align 8, !tbaa !12
  store ptr %24, ptr %23, align 8, !tbaa !22
  %25 = getelementptr inbounds nuw %struct.pm_regexp_parser_t, ptr %17, i32 0, i32 3
  %26 = load ptr, ptr %10, align 8, !tbaa !12
  %27 = load i64, ptr %11, align 8, !tbaa !14
  %28 = getelementptr i8, ptr %26, i64 %27
  store ptr %28, ptr %25, align 8, !tbaa !23
  %29 = getelementptr inbounds nuw %struct.pm_regexp_parser_t, ptr %17, i32 0, i32 4
  %30 = load i8, ptr %12, align 1, !tbaa !16, !range !24, !noundef !25
  %31 = trunc i8 %30 to i1
  %32 = zext i1 %31 to i8
  store i8 %32, ptr %29, align 8, !tbaa !26
  %33 = getelementptr inbounds nuw %struct.pm_regexp_parser_t, ptr %17, i32 0, i32 5
  %34 = load ptr, ptr %9, align 8, !tbaa !7
  %35 = getelementptr inbounds nuw %struct.pm_parser, ptr %34, i32 0, i32 42
  %36 = load i8, ptr %35, align 1, !tbaa !27, !range !24, !noundef !25
  %37 = trunc i8 %36 to i1
  %38 = zext i1 %37 to i8
  store i8 %38, ptr %33, align 1, !tbaa !44
  %39 = getelementptr i8, ptr %17, i64 34
  call void @llvm.memset.p0.i64(ptr align 2 %39, i8 0, i64 6, i1 false)
  %40 = getelementptr inbounds nuw %struct.pm_regexp_parser_t, ptr %17, i32 0, i32 6
  %41 = load ptr, ptr %9, align 8, !tbaa !7
  %42 = getelementptr inbounds nuw %struct.pm_parser, ptr %41, i32 0, i32 22
  %43 = load ptr, ptr %42, align 8, !tbaa !45
  store ptr %43, ptr %40, align 8, !tbaa !46
  %44 = getelementptr inbounds nuw %struct.pm_regexp_parser_t, ptr %17, i32 0, i32 7
  %45 = load ptr, ptr %13, align 8, !tbaa !18
  store ptr %45, ptr %44, align 8, !tbaa !47
  %46 = getelementptr inbounds nuw %struct.pm_regexp_parser_t, ptr %17, i32 0, i32 8
  %47 = load ptr, ptr %14, align 8, !tbaa !18
  store ptr %47, ptr %46, align 8, !tbaa !48
  %48 = getelementptr inbounds nuw %struct.pm_regexp_parser_t, ptr %17, i32 0, i32 9
  %49 = load ptr, ptr %15, align 8, !tbaa !18
  store ptr %49, ptr %48, align 8, !tbaa !49
  %50 = getelementptr inbounds nuw %struct.pm_regexp_parser_t, ptr %17, i32 0, i32 10
  %51 = load ptr, ptr %16, align 8, !tbaa !18
  store ptr %51, ptr %50, align 8, !tbaa !50
  %52 = call zeroext i1 @pm_regexp_parse_pattern(ptr noundef %17)
  ret void
}