; Function Attrs: nounwind sspstrong uwtable
define hidden void @pm_regexp_parse(ptr noundef %0, ptr noundef %1, i64 noundef %2, i1 noundef zeroext %3, ptr noundef %4, ptr noundef %5, ptr noundef %6, ptr noundef %7) local_unnamed_addr #0 {
  %9 = alloca %struct.pm_regexp_parser_t, align 8
  %10 = zext i1 %3 to i8
  store ptr %0, ptr %9, align 8, !tbaa !7
  %11 = getelementptr inbounds nuw i8, ptr %9, i64 8
  store ptr %1, ptr %11, align 8, !tbaa !15
  %12 = getelementptr inbounds nuw i8, ptr %9, i64 16
  store ptr %1, ptr %12, align 8, !tbaa !16
  %13 = getelementptr inbounds nuw i8, ptr %9, i64 24
  %14 = getelementptr i8, ptr %1, i64 %2
  store ptr %14, ptr %13, align 8, !tbaa !17
  %15 = getelementptr inbounds nuw i8, ptr %9, i64 32
  store i8 %10, ptr %15, align 8, !tbaa !18
  %16 = getelementptr inbounds nuw i8, ptr %9, i64 33
  %17 = getelementptr inbounds nuw i8, ptr %0, i64 699
  %18 = load i8, ptr %17, align 1, !tbaa !19, !range !37, !noundef !38
  store i8 %18, ptr %16, align 1, !tbaa !39
  %19 = getelementptr inbounds nuw i8, ptr %9, i64 34
  call void @llvm.memset.p0.i64(ptr noundef nonnull align 2 dereferenceable(6) %19, i8 0, i64 6, i1 false)
  %20 = getelementptr inbounds nuw i8, ptr %9, i64 40
  %21 = getelementptr inbounds nuw i8, ptr %0, i64 520
  %22 = load ptr, ptr %21, align 8, !tbaa !40
  store ptr %22, ptr %20, align 8, !tbaa !41
  %23 = getelementptr inbounds nuw i8, ptr %9, i64 48
  store ptr %4, ptr %23, align 8, !tbaa !42
  %24 = getelementptr inbounds nuw i8, ptr %9, i64 56
  store ptr %5, ptr %24, align 8, !tbaa !43
  %25 = getelementptr inbounds nuw i8, ptr %9, i64 64
  store ptr %6, ptr %25, align 8, !tbaa !44
  %26 = getelementptr inbounds nuw i8, ptr %9, i64 72
  store ptr %7, ptr %26, align 8, !tbaa !45
  %.not18.i = icmp ult ptr %1, %14
  br i1 %.not18.i, label %.lr.ph.i, label %pm_regexp_parse_pattern.exit

.lr.ph.i:                                         ; preds = %8, %pm_regexp_char_accept.exit.i
  %27 = call fastcc zeroext i1 @pm_regexp_parse_item(ptr noundef nonnull %9, i16 noundef zeroext 0)
  br i1 %27, label %.preheader.i.i, label %pm_regexp_parse_pattern.exit

.preheader.i.i:                                   ; preds = %.lr.ph.i, %30
  %.val.i.i = load ptr, ptr %12, align 8, !tbaa !16
  %.val13.i.i = load ptr, ptr %13, align 8, !tbaa !17
  %.not.i.i = icmp ult ptr %.val.i.i, %.val13.i.i
  br i1 %.not.i.i, label %28, label %pm_regexp_parse_pattern.exit

28:                                               ; preds = %.preheader.i.i
  %29 = load i8, ptr %.val.i.i, align 1, !tbaa !46
  switch i8 %29, label %30 [
    i8 124, label %pm_regexp_char_accept.exit.i
    i8 41, label %pm_regexp_parse_pattern.exit
  ]

30:                                               ; preds = %28
  %31 = call fastcc zeroext i1 @pm_regexp_parse_item(ptr noundef nonnull %9, i16 noundef zeroext 0)
  br i1 %31, label %.preheader.i.i, label %pm_regexp_parse_pattern.exit, !llvm.loop !47

pm_regexp_char_accept.exit.i:                     ; preds = %28
  %32 = getelementptr i8, ptr %.val.i.i, i64 1
  store ptr %32, ptr %12, align 8, !tbaa !16
  %.not.i = icmp ult ptr %32, %.val13.i.i
  br i1 %.not.i, label %.lr.ph.i, label %pm_regexp_parse_pattern.exit, !llvm.loop !49

pm_regexp_parse_pattern.exit:                     ; preds = %.lr.ph.i, %pm_regexp_char_accept.exit.i, %.preheader.i.i, %28, %30, %8
  ret void
}